; Function Attrs: mustprogress uwtable
define hidden void @_ZN3sat15model_converter4copyERKS0_(ptr noundef nonnull align 8 dereferenceable(40) %0, ptr noundef nonnull readonly align 8 captures(none) dereferenceable(40) %1) local_unnamed_addr #3 align 2 personality ptr @__gxx_personality_v0 {
  %3 = load ptr, ptr %0, align 8, !tbaa !3
  %.not.i = icmp eq ptr %3, null
  br i1 %.not.i, label %_ZN6vectorIN3sat15model_converter5entryELb1EjE5resetEv.exit.preheader, label %_ZNK6vectorIN3sat15model_converter5entryELb1EjE4sizeEv.exit.i.i

_ZNK6vectorIN3sat15model_converter5entryELb1EjE4sizeEv.exit.i.i: ; preds = %2
  %4 = getelementptr inbounds i8, ptr %3, i64 -4
  %5 = load i32, ptr %4, align 4, !tbaa !9
  %.not7.i.i.i.i.i = icmp eq i32 %5, 0
  br i1 %.not7.i.i.i.i.i, label %_ZN6vectorIN3sat15model_converter5entryELb1EjE16destroy_elementsEv.exit.i, label %.lr.ph.i.i.i.i.i

.lr.ph.i.i.i.i.i:                                 ; preds = %_ZNK6vectorIN3sat15model_converter5entryELb1EjE4sizeEv.exit.i.i, %_ZSt8_DestroyIN3sat15model_converter5entryEEvPT_.exit.i.i.i.i.i
  %.09.i.i.i.i.i = phi i32 [ %22, %_ZSt8_DestroyIN3sat15model_converter5entryEEvPT_.exit.i.i.i.i.i ], [ %5, %_ZNK6vectorIN3sat15model_converter5entryELb1EjE4sizeEv.exit.i.i ]
  %.048.i.i.i.i.i = phi ptr [ %21, %_ZSt8_DestroyIN3sat15model_converter5entryEEvPT_.exit.i.i.i.i.i ], [ %3, %_ZNK6vectorIN3sat15model_converter5entryELb1EjE4sizeEv.exit.i.i ]
  %6 = getelementptr inbounds nuw i8, ptr %.048.i.i.i.i.i, i64 24
  tail call void @_ZN15ref_vector_coreIN3sat15model_converter10elim_stackE21ref_unmanaged_wrapperIS2_EED2Ev(ptr noundef nonnull align 8 dereferenceable(8) %6) #22
  %7 = getelementptr inbounds nuw i8, ptr %.048.i.i.i.i.i, i64 16
  %8 = load ptr, ptr %7, align 8, !tbaa !11
  %.not.i.i.i.i.i.i.i.i.i.i = icmp eq ptr %8, null
  br i1 %.not.i.i.i.i.i.i.i.i.i.i, label %_ZN6vectorIN3sat7literalELb0EjED2Ev.exit.i.i.i.i.i.i.i.i, label %9

9:                                                ; preds = %.lr.ph.i.i.i.i.i
  %10 = getelementptr inbounds i8, ptr %8, i64 -8
  invoke void @_ZN6memory10deallocateEPv(ptr noundef nonnull %10)
          to label %_ZN6vectorIN3sat7literalELb0EjED2Ev.exit.i.i.i.i.i.i.i.i unwind label %11

11:                                               ; preds = %9
  %12 = landingpad { ptr, i32 }
          catch ptr null
  %13 = extractvalue { ptr, i32 } %12, 0
  tail call void @__clang_call_terminate(ptr %13) #23
  unreachable

_ZN6vectorIN3sat7literalELb0EjED2Ev.exit.i.i.i.i.i.i.i.i: ; preds = %9, %.lr.ph.i.i.i.i.i
  %14 = getelementptr inbounds nuw i8, ptr %.048.i.i.i.i.i, i64 8
  %15 = load ptr, ptr %14, align 8, !tbaa !11
  %.not.i.i1.i.i.i.i.i.i.i.i = icmp eq ptr %15, null
  br i1 %.not.i.i1.i.i.i.i.i.i.i.i, label %_ZSt8_DestroyIN3sat15model_converter5entryEEvPT_.exit.i.i.i.i.i, label %16

16:                                               ; preds = %_ZN6vectorIN3sat7literalELb0EjED2Ev.exit.i.i.i.i.i.i.i.i
  %17 = getelementptr inbounds i8, ptr %15, i64 -8
  invoke void @_ZN6memory10deallocateEPv(ptr noundef nonnull %17)
          to label %_ZSt8_DestroyIN3sat15model_converter5entryEEvPT_.exit.i.i.i.i.i unwind label %18

18:                                               ; preds = %16
  %19 = landingpad { ptr, i32 }
          catch ptr null
  %20 = extractvalue { ptr, i32 } %19, 0
  tail call void @__clang_call_terminate(ptr %20) #23
  unreachable

_ZSt8_DestroyIN3sat15model_converter5entryEEvPT_.exit.i.i.i.i.i: ; preds = %16, %_ZN6vectorIN3sat7literalELb0EjED2Ev.exit.i.i.i.i.i.i.i.i
  %21 = getelementptr inbounds nuw i8, ptr %.048.i.i.i.i.i, i64 32
  %22 = add i32 %.09.i.i.i.i.i, -1
  %.not.i.i.i.i.i = icmp eq i32 %22, 0
  br i1 %.not.i.i.i.i.i, label %_ZN6vectorIN3sat15model_converter5entryELb1EjE16destroy_elementsEv.exit.loopexit.i, label %.lr.ph.i.i.i.i.i, !llvm.loop !14

_ZN6vectorIN3sat15model_converter5entryELb1EjE16destroy_elementsEv.exit.loopexit.i: ; preds = %_ZSt8_DestroyIN3sat15model_converter5entryEEvPT_.exit.i.i.i.i.i
  %.pre.i = load ptr, ptr %0, align 8, !tbaa !3
  br label %_ZN6vectorIN3sat15model_converter5entryELb1EjE16destroy_elementsEv.exit.i

_ZN6vectorIN3sat15model_converter5entryELb1EjE16destroy_elementsEv.exit.i: ; preds = %_ZN6vectorIN3sat15model_converter5entryELb1EjE16destroy_elementsEv.exit.loopexit.i, %_ZNK6vectorIN3sat15model_converter5entryELb1EjE4sizeEv.exit.i.i
  %23 = phi ptr [ %.pre.i, %_ZN6vectorIN3sat15model_converter5entryELb1EjE16destroy_elementsEv.exit.loopexit.i ], [ %3, %_ZNK6vectorIN3sat15model_converter5entryELb1EjE4sizeEv.exit.i.i ]
  %24 = getelementptr inbounds i8, ptr %23, i64 -4
  store i32 0, ptr %24, align 4, !tbaa !9
  br label %_ZN6vectorIN3sat15model_converter5entryELb1EjE5resetEv.exit.preheader

_ZN6vectorIN3sat15model_converter5entryELb1EjE5resetEv.exit.preheader: ; preds = %2, %_ZN6vectorIN3sat15model_converter5entryELb1EjE16destroy_elementsEv.exit.i
  %.ph = phi ptr [ %23, %_ZN6vectorIN3sat15model_converter5entryELb1EjE16destroy_elementsEv.exit.i ], [ null, %2 ]
  br label %_ZN6vectorIN3sat15model_converter5entryELb1EjE5resetEv.exit

_ZN6vectorIN3sat15model_converter5entryELb1EjE5resetEv.exit: ; preds = %_ZN6vectorIN3sat15model_converter5entryELb1EjE5resetEv.exit.preheader, %_ZN6vectorIN3sat15model_converter5entryELb1EjE9push_backERKS2_.exit.i
  %25 = phi ptr [ %47, %_ZN6vectorIN3sat15model_converter5entryELb1EjE9push_backERKS2_.exit.i ], [ %.ph, %_ZN6vectorIN3sat15model_converter5entryELb1EjE5resetEv.exit.preheader ]
  %indvars.iv.i = phi i64 [ %indvars.iv.next.i, %_ZN6vectorIN3sat15model_converter5entryELb1EjE9push_backERKS2_.exit.i ], [ 0, %_ZN6vectorIN3sat15model_converter5entryELb1EjE5resetEv.exit.preheader ]
  %26 = load ptr, ptr %1, align 8, !tbaa !3
  %27 = icmp eq ptr %26, null
  br i1 %27, label %_ZNK6vectorIN3sat15model_converter5entryELb1EjE4sizeEv.exit.i, label %28

28:                                               ; preds = %_ZN6vectorIN3sat15model_converter5entryELb1EjE5resetEv.exit
  %29 = getelementptr inbounds i8, ptr %26, i64 -4
  %30 = load i32, ptr %29, align 4, !tbaa !9
  %31 = zext i32 %30 to i64
  br label %_ZNK6vectorIN3sat15model_converter5entryELb1EjE4sizeEv.exit.i

_ZNK6vectorIN3sat15model_converter5entryELb1EjE4sizeEv.exit.i: ; preds = %28, %_ZN6vectorIN3sat15model_converter5entryELb1EjE5resetEv.exit
  %.0.i.i = phi i64 [ %31, %28 ], [ 0, %_ZN6vectorIN3sat15model_converter5entryELb1EjE5resetEv.exit ]
  %32 = icmp samesign ult i64 %indvars.iv.i, %.0.i.i
  br i1 %32, label %33, label %_ZN6vectorIN3sat15model_converter5entryELb1EjE6appendERKS3_.exit

33:                                               ; preds = %_ZNK6vectorIN3sat15model_converter5entryELb1EjE4sizeEv.exit.i
  %34 = getelementptr inbounds nuw %"class.sat::model_converter::entry", ptr %26, i64 %indvars.iv.i
  %35 = icmp eq ptr %25, null
  br i1 %35, label %42, label %36

36:                                               ; preds = %33
  %37 = getelementptr inbounds i8, ptr %25, i64 -4
  %38 = load i32, ptr %37, align 4, !tbaa !9
  %39 = getelementptr inbounds i8, ptr %25, i64 -8
  %40 = load i32, ptr %39, align 4, !tbaa !9
  %41 = icmp eq i32 %38, %40
  br i1 %41, label %42, label %_ZN6vectorIN3sat15model_converter5entryELb1EjE9push_backERKS2_.exit.i

42:                                               ; preds = %36, %33
  tail call void @_ZN6vectorIN3sat15model_converter5entryELb1EjE13expand_vectorEv(ptr noundef nonnull align 8 dereferenceable(8) %0)
  %.pre.i.i = load ptr, ptr %0, align 8, !tbaa !3
  %.phi.trans.insert.i.i = getelementptr inbounds i8, ptr %.pre.i.i, i64 -4
  %.pre2.i.i = load i32, ptr %.phi.trans.insert.i.i, align 4, !tbaa !9
  br label %_ZN6vectorIN3sat15model_converter5entryELb1EjE9push_backERKS2_.exit.i

_ZN6vectorIN3sat15model_converter5entryELb1EjE9push_backERKS2_.exit.i: ; preds = %42, %36
  %43 = phi i32 [ %.pre2.i.i, %42 ], [ %38, %36 ]
  %44 = phi ptr [ %.pre.i.i, %42 ], [ %25, %36 ]
  %45 = zext i32 %43 to i64
  %46 = getelementptr inbounds nuw %"class.sat::model_converter::entry", ptr %44, i64 %45
  tail call void @_ZN3sat15model_converter5entryC2ERKS1_(ptr noundef nonnull align 8 dereferenceable(32) %46, ptr noundef nonnull align 8 dereferenceable(32) %34)
  %47 = load ptr, ptr %0, align 8, !tbaa !3
  %48 = getelementptr inbounds i8, ptr %47, i64 -4
  %49 = load i32, ptr %48, align 4, !tbaa !9
  %50 = add i32 %49, 1
  store i32 %50, ptr %48, align 4, !tbaa !9
  %indvars.iv.next.i = add nuw nsw i64 %indvars.iv.i, 1
  br label %_ZN6vectorIN3sat15model_converter5entryELb1EjE5resetEv.exit, !llvm.loop !16

_ZN6vectorIN3sat15model_converter5entryELb1EjE6appendERKS3_.exit: ; preds = %_ZNK6vectorIN3sat15model_converter5entryELb1EjE4sizeEv.exit.i
  %51 = getelementptr inbounds nuw i8, ptr %1, i64 8
  %52 = load i32, ptr %51, align 8, !tbaa !17
  %53 = getelementptr inbounds nuw i8, ptr %0, i64 8
  store i32 %52, ptr %53, align 8, !tbaa !17
  ret void
}